target datalayout = "e-m:e-p270:32:32-p271:32:32-p272:64:64-i64:64-i128:128-f80:128-n8:16:32:64-S128"
target triple = "x86_64-unknown-linux-gnu"

%class.obj_ref = type { ptr, ptr }
%"class.datalog::boogie_proof" = type { ptr, %class.obj_ref, %class.ref }
%class.ref = type { ptr }

; Function Attrs: mustprogress nounwind uwtable
define linkonce_odr hidden noundef nonnull align 8 dereferenceable(160) ptr @_ZN3refI5modelEdeEv(ptr noundef nonnull align 8 dereferenceable(8) %this) #5 comdat align 2 {
entry:
  %this.addr = alloca ptr, align 8
  store ptr %this, ptr %this.addr, align 8
  %this1 = load ptr, ptr %this.addr, align 8
  %m_ptr = getelementptr inbounds %class.ref, ptr %this1, i32 0, i32 0
  %0 = load ptr, ptr %m_ptr, align 8
  ret ptr %0
}

; Function Attrs: mustprogress nounwind uwtable
define linkonce_odr hidden noundef zeroext i1 @_ZNK3refI5modelEcvbEv(ptr noundef nonnull align 8 dereferenceable(8) %this) #5 comdat align 2 {
entry:
  %this.addr = alloca ptr, align 8
  store ptr %this, ptr %this.addr, align 8
  %this1 = load ptr, ptr %this.addr, align 8
  %m_ptr = getelementptr inbounds %class.ref, ptr %this1, i32 0, i32 0
  %0 = load ptr, ptr %m_ptr, align 8
  %cmp = icmp ne ptr %0, null
  ret i1 %cmp
}

; Function Attrs: mustprogress nounwind uwtable
define linkonce_odr hidden noundef zeroext i1 @_ZNK7obj_refI3app11ast_managerEcvbEv(ptr noundef nonnull align 8 dereferenceable(16) %this) #5 comdat align 2 {
entry:
  %this.addr = alloca ptr, align 8
  store ptr %this, ptr %this.addr, align 8
  %this1 = load ptr, ptr %this.addr, align 8
  %m_obj = getelementptr inbounds %class.obj_ref, ptr %this1, i32 0, i32 0
  %0 = load ptr, ptr %m_obj, align 8
  %cmp = icmp ne ptr %0, null
  ret i1 %cmp
}

; Function Attrs: mustprogress uwtable
define hidden void @_ZN7datalog12boogie_proof2ppERSo(ptr noundef nonnull align 8 dereferenceable(32) %this, ptr noundef nonnull align 8 dereferenceable(8) %out) #4 align 2 {
entry:
  %this.addr = alloca ptr, align 8
  %out.addr = alloca ptr, align 8
  store ptr %this, ptr %this.addr, align 8
  store ptr %out, ptr %out.addr, align 8
  %this1 = load ptr, ptr %this.addr, align 8
  %m_proof = getelementptr inbounds %"class.datalog::boogie_proof", ptr %this1, i32 0, i32 1
  %call = call noundef zeroext i1 @_ZNK7obj_refI3app11ast_managerEcvbEv(ptr noundef nonnull align 8 dereferenceable(16) %m_proof)
  br i1 %call, label %if.then, label %if.end

if.then:                                          ; preds = %entry
  %0 = load ptr, ptr %out.addr, align 8
  call void @_ZN7datalog12boogie_proof8pp_proofERSo(ptr noundef nonnull align 8 dereferenceable(32) %this1, ptr noundef nonnull align 8 dereferenceable(8) %0)
  br label %if.end

if.end:                                           ; preds = %if.then, %entry
  %m_model = getelementptr inbounds %"class.datalog::boogie_proof", ptr %this1, i32 0, i32 2
  %call2 = call noundef zeroext i1 @_ZNK3refI5modelEcvbEv(ptr noundef nonnull align 8 dereferenceable(8) %m_model)
  br i1 %call2, label %if.then3, label %if.end6

if.then3:                                         ; preds = %if.end
  %1 = load ptr, ptr %out.addr, align 8
  %m_model4 = getelementptr inbounds %"class.datalog::boogie_proof", ptr %this1, i32 0, i32 2
  %call5 = call noundef nonnull align 8 dereferenceable(160) ptr @_ZN3refI5modelEdeEv(ptr noundef nonnull align 8 dereferenceable(8) %m_model4)
  call void @_Z8model_ppRSoRK10model_core(ptr noundef nonnull align 8 dereferenceable(8) %1, ptr noundef nonnull align 8 dereferenceable(96) %call5)
  br label %if.end6

if.end6:                                          ; preds = %if.then3, %if.end
  ret void
}