; Function Attrs: mustprogress uwtable
define hidden void @_ZN7datalog12boogie_proof2ppERSo(ptr nocapture noundef nonnull readonly align 8 dereferenceable(32) %this, ptr noundef nonnull align 8 dereferenceable(8) %out) local_unnamed_addr #3 align 2 {
entry:
  %m_proof = getelementptr inbounds i8, ptr %this, i64 8
  %0 = load ptr, ptr %m_proof, align 8
  %cmp.i.not = icmp eq ptr %0, null
  br i1 %cmp.i.not, label %if.end, label %if.then

if.then:                                          ; preds = %entry
  tail call void @_ZN7datalog12boogie_proof8pp_proofERSo(ptr noundef nonnull align 8 dereferenceable(32) %this, ptr noundef nonnull align 8 dereferenceable(8) %out)
  br label %if.end

if.end:                                           ; preds = %if.then, %entry
  %m_model = getelementptr inbounds i8, ptr %this, i64 24
  %1 = load ptr, ptr %m_model, align 8
  %cmp.i2.not = icmp eq ptr %1, null
  br i1 %cmp.i2.not, label %if.end6, label %if.then3

if.then3:                                         ; preds = %if.end
  tail call void @_Z8model_ppRSoRK10model_core(ptr noundef nonnull align 8 dereferenceable(8) %out, ptr noundef nonnull align 8 dereferenceable(96) %1)
  br label %if.end6

if.end6:                                          ; preds = %if.then3, %if.end
  ret void
}